target datalayout = "e-m:e-p270:32:32-p271:32:32-p272:64:64-i64:64-i128:128-f80:128-n8:16:32:64-S128"
target triple = "x86_64-pc-linux-gnu"

@sigcomp_handle = internal global ptr null, align 8

; Function Attrs: null_pointer_is_valid sspstrong uwtable
define internal i32 @dissect_sip(ptr noundef %0, ptr noundef %1, ptr noundef %2, ptr noundef %3) #0 {
  %5 = alloca i32, align 4
  %6 = alloca ptr, align 8
  %7 = alloca ptr, align 8
  %8 = alloca ptr, align 8
  %9 = alloca ptr, align 8
  %10 = alloca i8, align 1
  %11 = alloca i32, align 4
  %12 = alloca i32, align 4
  %13 = alloca i32, align 4
  store ptr %0, ptr %6, align 8
  store ptr %1, ptr %7, align 8
  store ptr %2, ptr %8, align 8
  store ptr %3, ptr %9, align 8
  call void @llvm.lifetime.start.p0(i64 1, ptr %10) #18
  call void @llvm.lifetime.start.p0(i64 4, ptr %11) #18
  call void @llvm.lifetime.start.p0(i64 4, ptr %12) #18
  %14 = load ptr, ptr %6, align 8
  %15 = call zeroext i8 @tvb_get_uint8(ptr noundef %14, i32 noundef 0)
  store i8 %15, ptr %10, align 1
  %16 = load i8, ptr %10, align 1
  %17 = zext i8 %16 to i32
  %18 = and i32 %17, 248
  %19 = icmp eq i32 %18, 248
  br i1 %19, label %20, label %28

20:                                               ; preds = %4
  %21 = load ptr, ptr @sigcomp_handle, align 8
  %22 = load ptr, ptr %6, align 8
  %23 = load ptr, ptr %7, align 8
  %24 = load ptr, ptr %8, align 8
  %25 = call i32 @call_dissector(ptr noundef %21, ptr noundef %22, ptr noundef %23, ptr noundef %24)
  %26 = load ptr, ptr %6, align 8
  %27 = call i32 @tvb_reported_length(ptr noundef %26)
  store i32 %27, ptr %5, align 4
  store i32 1, ptr %13, align 4
  br label %41

28:                                               ; preds = %4
  %29 = load ptr, ptr %6, align 8
  %30 = call i32 @tvb_reported_length(ptr noundef %29)
  store i32 %30, ptr %12, align 4
  %31 = load ptr, ptr %6, align 8
  %32 = load i32, ptr %12, align 4
  %33 = load ptr, ptr %7, align 8
  %34 = load ptr, ptr %8, align 8
  %35 = call i32 @dissect_sip_common(ptr noundef %31, i32 noundef 0, i32 noundef %32, ptr noundef %33, ptr noundef %34, i1 noundef zeroext false, i1 noundef zeroext false)
  store i32 %35, ptr %11, align 4
  %36 = load i32, ptr %11, align 4
  %37 = icmp slt i32 %36, 0
  br i1 %37, label %38, label %39

38:                                               ; preds = %28
  store i32 0, ptr %5, align 4
  store i32 1, ptr %13, align 4
  br label %41

39:                                               ; preds = %28
  %40 = load i32, ptr %11, align 4
  store i32 %40, ptr %5, align 4
  store i32 1, ptr %13, align 4
  br label %41

41:                                               ; preds = %39, %38, %20
  call void @llvm.lifetime.end.p0(i64 4, ptr %12) #18
  call void @llvm.lifetime.end.p0(i64 4, ptr %11) #18
  call void @llvm.lifetime.end.p0(i64 1, ptr %10) #18
  %42 = load i32, ptr %5, align 4
  ret i32 %42
}