; Function Attrs: null_pointer_is_valid sspstrong uwtable
define internal i32 @dissect_sip(ptr noundef %0, ptr noundef %1, ptr noundef %2, ptr readnone captures(none) %3) #0 {
  %5 = tail call zeroext i8 @tvb_get_uint8(ptr noundef %0, i32 noundef 0)
  %6 = icmp ugt i8 %5, -9
  br i1 %6, label %7, label %11

7:                                                ; preds = %4
  %8 = load ptr, ptr @sigcomp_handle, align 8
  %9 = tail call i32 @call_dissector(ptr noundef %8, ptr noundef %0, ptr noundef %1, ptr noundef %2)
  %10 = tail call i32 @tvb_reported_length(ptr noundef %0)
  br label %14

11:                                               ; preds = %4
  %12 = tail call i32 @tvb_reported_length(ptr noundef %0)
  %13 = tail call fastcc i32 @dissect_sip_common(ptr noundef %0, i32 noundef 0, i32 noundef %12, ptr noundef %1, ptr noundef %2, i1 noundef zeroext false, i1 noundef zeroext false)
  %. = tail call i32 @llvm.smax.i32(i32 %13, i32 0)
  br label %14

14:                                               ; preds = %11, %7
  %.0 = phi i32 [ %10, %7 ], [ %., %11 ]
  ret i32 %.0
}